ccopy_reg
_reconstructor
p1
(ctools
Pdict
p2
c__builtin__
dict
p3
(dp4
S'1177474877'
p5
(dp6
S'date'
p7
S'2008-10-21 13:25:44'
p8
sS'item'
p9
S'DEVO LOLITA GLASSES'
p10
sS'amount'
p11
I99
sS'location'
p12
S'Floyd'
p13
sS'name'
p14
S'Apatia Hammerer'
p15
ssS'1112934245'
p16
(dp17
S'date'
p18
S'2008-09-15 21:25:56'
p19
sS'item'
p20
S'DEVO BEEHIVE'
p21
sS'amount'
p22
I99
sS'location'
p23
S'ministry of media'
p24
sS'name'
p25
S'Duda Poulot'
p26
ssS'1177439118'
p27
(dp28
g7
S'2008-10-21 13:04:50'
p29
sg9
S'DEVO ZAPPER'
p30
sg11
I99
sg12
S'Floyd'
p31
sg14
S'Stein Shilova'
p32
ssS'1185432990'
p33
(dp34
g7
S'2008-10-25 19:44:50'
p35
sg9
S'DEVO ORANGE TREE'
p36
sg11
I299
sg12
S'Mostly Harmless'
p37
sg14
S'Elusyve Jewell'
p38
ssS'1200556784'
p39
(dp40
g7
S'2008-11-02 18:01:26'
p41
sg9
S'DEVO TV'
p42
sg11
I499
sg12
S'Aura'
p43
sg14
S'Hugo Plessis'
p44
ssS'1282291246'
p45
(dp46
S'date'
p47
S'2008-12-15 12:56:45'
p48
sS'item'
p49
S'DEVO SEX BOMB'
p50
sS'amount'
p51
I1
sS'location'
p52
S'Aura'
p53
sS'name'
p54
S'Allessa Volare'
p55
ssS'1135695861'
p56
(dp57
S'date'
p58
S'2008-09-28 17:03:55'
p59
sS'item'
p60
S'DEVO MIXER'
p61
sS'amount'
p62
I499
sS'location'
p63
S'ministry of media'
p64
sS'name'
p65
S'Jinxy Seoul'
p66
ssS'1131927195'
p67
(dp68
S'date'
p69
S'2008-09-26 16:35:04'
p70
sS'item'
p71
S'DEVO CANE'
p72
sS'amount'
p73
I99
sS'location'
p74
S'ministry of media'
p75
sS'name'
p76
S'Tayasha Tammas'
p77
ssS'1214321112'
p78
(dp79
S'date'
p80
S'2008-11-10 06:40:56'
p81
sS'item'
p82
S'DEVO SLINGSHOT'
p83
sS'amount'
p84
I99
sS'location'
p85
S'Floyd'
p86
sS'name'
p87
S'Molly Lerner'
p88
ssS'1212852176'
p89
(dp90
g7
S'2008-11-09 11:32:55'
p91
sg9
S'DEVO SLINGSHOT'
p92
sg11
I99
sg12
S'Mostly Harmless'
p93
sg14
S'Ravenelle Zugzwang'
p94
ssS'1131719314'
p95
(dp96
g69
S'2008-09-26 14:17:02'
p97
sg71
S'DEVO 1 PRIM COUCH'
p98
sg73
I99
sg74
S'ministry of media'
p99
sg76
S'Deja Hax'
p100
ssS'1258926922'
p101
(dp102
S'date'
p103
S'2008-12-03 16:37:48'
p104
sS'item'
p105
S'DEVO SLINGSHOT'
p106
sS'amount'
p107
I99
sS'location'
p108
S'Floyd'
p109
sS'name'
p110
S'Ozone Franizzi'
p111
ssS'1209144970'
p112
(dp113
g7
S'2008-11-07 13:20:45'
p114
sg9
S'DEVO WAND'
p115
sg11
I299
sg12
S'Aura'
p116
sg14
S'Drin Brewster'
p117
ssS'1221603302'
p118
(dp119
S'date'
p120
S'2008-11-14 06:17:54'
p121
sS'item'
p122
S'DEVO SLINGSHOT'
p123
sS'amount'
p124
I99
sS'location'
p125
S'Floyd'
p126
sS'name'
p127
S'Riq Graves'
p128
ssS'1182162461'
p129
(dp130
g7
S'2008-10-24 05:35:58'
p131
sg9
S'DEVO CANE'
p132
sg11
I99
sg12
S'Floyd'
p133
sg14
S'Shelby Rasmuson'
p134
ssS'1213774202'
p135
(dp136
S'date'
p137
S'2008-11-09 21:25:55'
p138
sS'item'
p139
S'DEVO BOMB JETPACK'
p140
sS'amount'
p141
I99
sS'location'
p142
S'Mostly Harmless'
p143
sS'name'
p144
S'Hallie Galli'
p145
ssS'1197619217'
p146
(dp147
g7
S'2008-11-01 08:46:34'
p148
sg9
S'DEVO SLINGSHOT'
p149
sg11
I99
sg12
S'Floyd'
p150
sg14
S'BettiePage Voyager'
p151
ssS'1241046976'
p152
(dp153
S'date'
p154
S'2008-11-24 13:30:59'
p155
sS'item'
p156
S'DEVO 1 PRIM COUCH'
p157
sS'amount'
p158
I99
sS'location'
p159
S'Floyd'
p160
sS'name'
p161
S'Kisa Naumova'
p162
ssS'1266584186'
p163
(dp164
S'date'
p165
S'2008-12-07 13:31:46'
p166
sS'item'
p167
S'DEVO WAND'
p168
sS'amount'
p169
I299
sS'location'
p170
S'Aura'
p171
sS'name'
p172
S'Abaigeal McMillan'
p173
ssS'1222573830'
p174
(dp175
g120
S'2008-11-14 17:14:51'
p176
sg122
S'DEVO ACCORDIAN'
p177
sg124
I299
sg125
S'Aura'
p178
sg127
S'Elric Ember'
p179
ssS'1209149800'
p180
(dp181
g7
S'2008-11-07 13:23:50'
p182
sg9
S'DEVO PETS'
p183
sg11
I499
sg12
S'Aura'
p184
sg14
S'Drin Brewster'
p185
ssS'1284254909'
p186
(dp187
S'date'
p188
S'12/16/2008 11:06:07'
p189
sS'item'
p190
S'DEVO SEX BOMB'
p191
sS'amount'
p192
I1
sS'location'
p193
S'Aura'
p194
sS'name'
p195
S'gleiceee Andel'
p196
ssS'1135259791'
p197
(dp198
g58
S'2008-09-28 12:31:34'
p199
sg60
S'DEVO DRILLER'
p200
sg62
I99
sg63
S'ministry of media'
p201
sg65
S'Tayasha Tammas'
p202
ssS'1206825666'
p203
(dp204
g7
S'2008-11-06 06:37:04'
p205
sg9
S'DEVO STILTS'
p206
sg11
I299
sg12
S'Floyd'
p207
sg14
S'Spazmo Interflug'
p208
ssS'1227708058'
p209
(dp210
S'date'
p211
S'2008-11-17 10:12:08'
p212
sS'item'
p213
S'DEVO BIRD BOWL HAT'
p214
sS'amount'
p215
I299
sS'location'
p216
S'Mostly Harmless'
p217
sS'name'
p218
S'Hallie Galli'
p219
ssS'1177451691'
p220
(dp221
g7
S'2008-10-21 13:12:15'
p222
sg9
S'DEVO BIRD BOWL HAT'
p223
sg11
I299
sg12
S'Floyd'
p224
sg14
S'Stein Shilova'
p225
ssS'1107589414'
p226
(dp227
S'date'
p228
S'2008-09-12 22:06:04'
p229
sS'item'
p230
S'DEVO PETS'
p231
sS'amount'
p232
I499
sS'location'
p233
S'ministry of media'
p234
sS'name'
p235
S'Kira Paderborn'
p236
ssS'1198747795'
p237
(dp238
g7
S'2008-11-01 20:38:13'
p239
sg9
S'DEVO LEGLESS'
p240
sg11
I299
sg12
S'Floyd'
p241
sg14
S'Sithut Tammas'
p242
ssS'1187749464'
p243
(dp244
g7
S'2008-10-26 23:34:10'
p245
sg9
S'DEVO SLINGSHOT'
p246
sg11
I99
sg12
S'Aura'
p247
sg14
S'tinker Hax'
p248
ssS'1186260420'
p249
(dp250
g7
S'2008-10-26 07:24:17'
p251
sg9
S'DEVO STILTS'
p252
sg11
I299
sg12
S'Floyd'
p253
sg14
S'Sithut Tammas'
p254
ssS'1227045291'
p255
(dp256
g211
S'2008-11-16 23:53:12'
p257
sg213
S'DEVO WAND'
p258
sg215
I299
sg216
S'Aura'
p259
sg218
S'Jennette Forager'
p260
ssS'1107593919'
p261
(dp262
g228
S'2008-09-12 22:09:58'
p263
sg230
S'DEVO TOASTER'
p264
sg232
I299
sg233
S'ministry of media'
p265
sg235
S'Norepella Mimulus'
p266
ssS'1179635917'
p267
(dp268
g7
S'2008-10-22 17:40:37'
p269
sg9
S'DEVO CANE'
p270
sg11
I99
sg12
S'Aura'
p271
sg14
S'Delilahlee Westland'
p272
ssS'1135696288'
p273
(dp274
g58
S'2008-09-28 17:04:13'
p275
sg60
S'DEVO HAMMER'
p276
sg62
I299
sg63
S'ministry of media'
p277
sg65
S'Jinxy Seoul'
p278
ssS'1207799304'
p279
(dp280
g7
S'2008-11-06 18:05:03'
p281
sg9
S'DEVO MONO LAMP'
p282
sg11
I99
sg12
S'Floyd'
p283
sg14
S'Olaenka Chesnokov'
p284
ssS'1130102005'
p285
(dp286
S'date'
p287
S'2008-09-25 14:54:12'
p288
sS'item'
p289
S'DEVO ACCORDIAN'
p290
sS'amount'
p291
I299
sS'location'
p292
S'ministry of media'
p293
sS'name'
p294
S'Mischa Bullard'
p295
ssS'1160395960'
p296
(dp297
g7
S'2008-10-12 08:13:02'
p298
sg9
S'DEVO 1 PRIM COUCH'
p299
sg11
I99
sg12
S'ministry of media'
p300
sg14
S'Xveemon Biddle'
p301
ssS'1210643301'
p302
(dp303
g7
S'2008-11-08 08:57:39'
p304
sg9
S'DEVO SLINGSHOT'
p305
sg11
I99
sg12
S'Aura'
p306
sg14
S'Hallie Galli'
p307
ssS'1145873544'
p308
(dp309
S'date'
p310
S'2008-10-04 11:50:03'
p311
sS'item'
p312
S'DEVO ACCORDIAN'
p313
sS'amount'
p314
I299
sS'location'
p315
S'ministry of media'
p316
sS'name'
p317
S'GambitMojo Writer'
p318
ssS'1280278709'
p319
(dp320
g47
S'2008-12-14 12:10:28'
p321
sg49
S'DEVO SEX BOMB'
p322
sg51
I1
sg52
S'Aura'
p323
sg54
S'Tord Godenot'
p324
ssS'1281978483'
p325
(dp326
g47
S'2008-12-15 09:38:42'
p327
sg49
S'DEVO SEX BOMB'
p328
sg51
I1
sg52
S'Aura'
p329
sg54
S'Gemma Mornington'
p330
ssS'1114488021'
p331
(dp332
S'date'
p333
S'2008-09-16 16:51:56'
p334
sS'item'
p335
S'DEVO TOASTER'
p336
sS'amount'
p337
I299
sS'location'
p338
S'ministry of media'
p339
sS'name'
p340
S'Vasean Talamasca'
p341
ssS'1177437202'
p342
(dp343
g7
S'2008-10-21 13:03:44'
p344
sg9
S'DEVO ORANGE TREE'
p345
sg11
I299
sg12
S'Floyd'
p346
sg14
S'Stein Shilova'
p347
ssS'1227706548'
p348
(dp349
g211
S'2008-11-17 10:11:04'
p350
sg213
S'DEVO LOLITA GLASSES'
p351
sg215
I99
sg216
S'Mostly Harmless'
p352
sg218
S'Hallie Galli'
p353
ssS'1134337655'
p354
(dp355
g58
S'2008-09-28 00:03:10'
p356
sg60
S'DEVO WAND'
p357
sg62
I299
sg63
S'Mostly Harmless'
p358
sg65
S'Constance Maurer'
p359
ssS'1115132494'
p360
(dp361
g333
S'2008-09-17 03:01:45'
p362
sg335
S'DEVO BEANIE'
p363
sg337
I99
sg338
S'ministry of media'
p364
sg340
S'Bazz Zeiler'
p365
ssS'1170299335'
p366
(dp367
g7
S'2008-10-17 18:19:36'
p368
sg9
S'DEVO ACCORDIAN'
p369
sg11
I299
sg12
S'Mostly Harmless'
p370
sg14
S'Mur Attenborough'
p371
ssS'1170294072'
p372
(dp373
g7
S'2008-10-17 18:15:56'
p374
sg9
S'DEVO BEANIE'
p375
sg11
I99
sg12
S'Mostly Harmless'
p376
sg14
S'Mur Attenborough'
p377
ssS'1170470841'
p378
(dp379
g7
S'2008-10-17 20:21:15'
p380
sg9
S'DEVO LEGLESS'
p381
sg11
I299
sg12
S'Floyd'
p382
sg14
S'Allegory Malaprop'
p383
ssS'1109432544'
p384
(dp385
g228
S'2008-09-13 22:15:02'
p386
sg230
S'DEVO STILTS'
p387
sg232
I299
sg233
S'ministry of media'
p388
sg235
S'Kenry Klaar'
p389
ssS'1170296950'
p390
(dp391
g7
S'2008-10-17 18:17:56'
p392
sg9
S'DEVO SLINGSHOT'
p393
sg11
I99
sg12
S'Mostly Harmless'
p394
sg14
S'Mur Attenborough'
p395
ssS'1254375100'
p396
(dp397
S'date'
p398
S'2008-12-01 12:59:26'
p399
sS'item'
p400
S'DEVO ZAPPER'
p401
sS'amount'
p402
I99
sS'location'
p403
S'Mostly Harmless'
p404
sS'name'
p405
S'Nyla Jaxxon'
p406
ssS'1204545807'
p407
(dp408
g7
S'2008-11-04 21:07:52'
p409
sg9
S'DEVO WAND'
p410
sg11
I299
sg12
S'Floyd'
p411
sg14
S'Innoruuk Constantine'
p412
ssS'1221092309'
p413
(dp414
S'date'
p415
S'2008-11-13 21:05:25'
p416
sS'item'
p417
S'DEVO WAND'
p418
sS'amount'
p419
I299
sS'location'
p420
S'Aura'
p421
sS'name'
p422
S'Island Kanto'
p423
ssS'1200543961'
p424
(dp425
g7
S'2008-11-02 17:52:42'
p426
sg9
S'DEVO PETS'
p427
sg11
I499
sg12
S'Aura'
p428
sg14
S'Hugo Plessis'
p429
ssS'1282524258'
p430
(dp431
S'date'
p432
S'2008-12-15 15:11:29'
p433
sS'item'
p434
S'DEVO SEX BOMB'
p435
sS'amount'
p436
I1
sS'location'
p437
S'Aura'
p438
sS'name'
p439
S'Luzbel Kondor'
p440
ssS'1120735585'
p441
(dp442
S'date'
p443
S'2008-09-20 09:57:38'
p444
sS'item'
p445
S'DEVO CANE'
p446
sS'amount'
p447
I99
sS'location'
p448
S'ministry of media'
p449
sS'name'
p450
S'Stokely Mayfair'
p451
ssS'1281584614'
p452
(dp453
g47
S'2008-12-15 04:21:55'
p454
sg49
S'DEVO SEX BOMB'
p455
sg51
I1
sg52
S'Aura'
p456
sg54
S'soffikiss Constantine'
p457
ssS'1189390677'
p458
(dp459
g7
S'2008-10-27 20:39:35'
p460
sg9
S'DEVO SLINGSHOT'
p461
sg11
I99
sg12
S'Floyd'
p462
sg14
S'coco46 Noriega'
p463
ssS'1211972346'
p464
(dp465
g7
S'2008-11-08 23:50:12'
p466
sg9
S'DEVO CANE'
p467
sg11
I99
sg12
S'Mostly Harmless'
p468
sg14
S'Stormie Sweetwater'
p469
ssS'1114489703'
p470
(dp471
g333
S'2008-09-16 16:53:13'
p472
sg335
S'DEVO APERTURE GATE'
p473
sg337
I299
sg338
S'ministry of media'
p474
sg340
S'Vasean Talamasca'
p475
ssS'1283052952'
p476
(dp477
g188
S'2008-12-15 20:58:59'
p478
sg190
S'DEVO SEX BOMB'
p479
sg192
I1
sg193
S'Aura'
p480
sg195
S'Nova Halderman'
p481
ssS'1282528527'
p482
(dp483
g432
S'2008-12-15 15:14:05'
p484
sg434
S'DEVO SEX BOMB'
p485
sg436
I1
sg437
S'Aura'
p486
sg439
S'Pietra Rickena'
p487
ssS'1209926636'
p488
(dp489
g7
S'2008-11-07 22:13:46'
p490
sg9
S'DEVO BENDER'
p491
sg11
I499
sg12
S'Floyd'
p492
sg14
S'Noam Sprocket'
p493
ssS'1209146990'
p494
(dp495
g7
S'2008-11-07 13:22:02'
p496
sg9
S'DEVO ZAPPER'
p497
sg11
I99
sg12
S'Aura'
p498
sg14
S'Drin Brewster'
p499
ssS'1209261740'
p500
(dp501
g7
S'2008-11-07 14:32:00'
p502
sg9
S'DEVO PETS'
p503
sg11
I499
sg12
S'Floyd'
p504
sg14
S'Akiko Thursday'
p505
ssS'1170298812'
p506
(dp507
g7
S'2008-10-17 18:19:16'
p508
sg9
S'DEVO ZAPPER'
p509
sg11
I99
sg12
S'Mostly Harmless'
p510
sg14
S'Mur Attenborough'
p511
ssS'1227705728'
p512
(dp513
g211
S'2008-11-17 10:10:30'
p514
sg213
S'DEVO WAND'
p515
sg215
I299
sg216
S'Mostly Harmless'
p516
sg218
S'Geneva Kaufmann'
p517
ssS'1203535365'
p518
(dp519
g7
S'2008-11-04 09:16:13'
p520
sg9
S'DEVO PAINT'
p521
sg11
I0
sg12
S'Tableau'
p522
sg14
S'In Bloom'
p523
ssS'1219586108'
p524
(dp525
S'date'
p526
S'2008-11-13 01:13:42'
p527
sS'item'
p528
S'DEVO CANE'
p529
sS'amount'
p530
I99
sS'location'
p531
S'Floyd'
p532
sS'name'
p533
S'Albert Gravois'
p534
ssS'1139263721'
p535
(dp536
g310
S'2008-09-30 16:13:48'
p537
sg312
S'DEVO LOLITA GLASSES'
p538
sg314
I99
sg315
S'ministry of media'
p539
sg317
S'Guinevere Kirshner'
p540
ssS'1275307687'
p541
(dp542
g47
S'2008-12-12 00:10:38'
p543
sg49
S'DEVO STILTS'
p544
sg51
I299
sg52
S'Floyd'
p545
sg54
S'JoJo Corvale'
p546
ssS'1254100861'
p547
(dp548
g398
S'2008-12-01 10:05:34'
p549
sg400
S'DEVO SEX BOMB'
p550
sg402
I1
sg403
S'Aura'
p551
sg405
S'Sira Arbizu'
p552
ssS'1287023500'
p553
(dp554
S'date'
p555
S'12/17/2008 19:41:28'
p556
sS'item'
p557
S'DEVO DRILLER'
p558
sS'amount'
p559
I99
sS'location'
p560
S'Aura'
p561
sS'name'
p562
S'Analeigh Piers'
p563
ssS'1177473975'
p564
(dp565
g7
S'2008-10-21 13:25:13'
p566
sg9
S'DEVO ACCORDIAN'
p567
sg11
I299
sg12
S'Floyd'
p568
sg14
S'Apatia Hammerer'
p569
ssS'1260135938'
p570
(dp571
S'date'
p572
S'2008-12-04 09:15:44'
p573
sS'item'
p574
S'DEVO DISCO'
p575
sS'amount'
p576
I499
sS'location'
p577
S'Floyd'
p578
sS'name'
p579
S'Bah Cortes'
p580
ssS'1115125323'
p581
(dp582
g333
S'2008-09-17 02:52:52'
p583
sg335
S'DEVO DISCO'
p584
sg337
I499
sg338
S'ministry of media'
p585
sg340
S'Bazz Zeiler'
p586
ssS'1133805652'
p587
(dp588
S'date'
p589
S'2008-09-27 17:06:51'
p590
sS'item'
p591
S'DEVO ZAPPER'
p592
sS'amount'
p593
I99
sS'location'
p594
S'ministry of media'
p595
sS'name'
p596
S'Tayasha Tammas'
p597
ssS'1284681012'
p598
(dp599
g188
S'12/16/2008 15:12:59'
p600
sg190
S'DEVO SLINGSHOT'
p601
sg192
I99
sg193
S'Mostly Harmless'
p602
sg195
S'tracy Lecker'
p603
ssS'1279142213'
p604
(dp605
g47
S'2008-12-13 21:38:54'
p606
sg49
S'DEVO SEX BOMB'
p607
sg51
I1
sg52
S'Aura'
p608
sg54
S'Bambaria Irata'
p609
ssS'1203847209'
p610
(dp611
g7
S'2008-11-04 12:49:54'
p612
sg9
S'DEVO SLINGSHOT'
p613
sg11
I99
sg12
S'Floyd'
p614
sg14
S'Inara Marquette'
p615
ssS'1283051665'
p616
(dp617
g188
S'2008-12-15 20:58:02'
p618
sg190
S'DEVO SEX BOMB'
p619
sg192
I1
sg193
S'Aura'
p620
sg195
S'Esther Fierrens'
p621
ssS'1275307861'
p622
(dp623
g47
S'2008-12-12 00:10:48'
p624
sg49
S'DEVO HAMMER'
p625
sg51
I299
sg52
S'Floyd'
p626
sg54
S'JoJo Corvale'
p627
ssS'1274649947'
p628
(dp629
S'date'
p630
S'2008-12-11 15:45:04'
p631
sS'item'
p632
S'DEVO SEX BOMB'
p633
sS'amount'
p634
I1
sS'location'
p635
S'Aura'
p636
sS'name'
p637
S'tweeny Akina'
p638
ssS'1266582525'
p639
(dp640
g165
S'2008-12-07 13:30:54'
p641
sg167
S'DEVO LOLITA GLASSES'
p642
sg169
I99
sg170
S'Aura'
p643
sg172
S'Abaigeal McMillan'
p644
ssS'1253223656'
p645
(dp646
S'date'
p647
S'2008-11-30 21:02:42'
p648
sS'item'
p649
S'DEVO SEX BOMB'
p650
sS'amount'
p651
I1
sS'location'
p652
S'Aura'
p653
sS'name'
p654
S'Mufkin Demonia'
p655
ssS'1135697023'
p656
(dp657
g58
S'2008-09-28 17:04:42'
p658
sg60
S'DEVO SLINGSHOT'
p659
sg62
I99
sg63
S'ministry of media'
p660
sg65
S'Jinxy Seoul'
p661
ssS'1115130006'
p662
(dp663
g333
S'2008-09-17 02:58:41'
p664
sg335
S'DEVO TOASTER'
p665
sg337
I299
sg338
S'ministry of media'
p666
sg340
S'Bazz Zeiler'
p667
ssS'1285125608'
p668
(dp669
g188
S'12/16/2008 20:01:42'
p670
sg190
S'DEVO SEX BOMB'
p671
sg192
I1
sg193
S'Aura'
p672
sg195
S'Money Moo'
p673
ssS'1187750676'
p674
(dp675
g7
S'2008-10-26 23:35:36'
p676
sg9
S'DEVO ACCORDIAN'
p677
sg11
I299
sg12
S'Aura'
p678
sg14
S'tinker Hax'
p679
ssS'1220640105'
p680
(dp681
S'date'
p682
S'2008-11-13 15:21:12'
p683
sS'item'
p684
S'DEVO WAND'
p685
sS'amount'
p686
I299
sS'location'
p687
S'Mostly Harmless'
p688
sS'name'
p689
S'Gemma Mornington'
p690
ssS'1119896119'
p691
(dp692
g443
S'2008-09-19 21:08:16'
p693
sg445
S'DEVO TOASTER'
p694
sg447
I299
sg448
S'ministry of media'
p695
sg450
S'Uma Ceawlin'
p696
ssS'1209146537'
p697
(dp698
g7
S'2008-11-07 13:21:46'
p699
sg9
S'DEVO LOLITA GLASSES'
p700
sg11
I99
sg12
S'Aura'
p701
sg14
S'Drin Brewster'
p702
ssS'1277260025'
p703
(dp704
g47
S'2008-12-13 00:09:54'
p705
sg49
S'DEVO LEGLESS'
p706
sg51
I299
sg52
S'Mostly Harmless'
p707
sg54
S'Elke Mackie'
p708
ssS'1135695663'
p709
(dp710
g58
S'2008-09-28 17:03:48'
p711
sg60
S'DEVO BEEHIVE'
p712
sg62
I99
sg63
S'ministry of media'
p713
sg65
S'Jinxy Seoul'
p714
ssS'1227712881'
p715
(dp716
g211
S'2008-11-17 10:15:42'
p717
sg213
S'DEVO DISCO'
p718
sg215
I499
sg216
S'Mostly Harmless'
p719
sg218
S'Hallie Galli'
p720
ssS'1281921705'
p721
(dp722
g47
S'2008-12-15 08:58:54'
p723
sg49
S'DEVO SEX BOMB'
p724
sg51
I1
sg52
S'Aura'
p725
sg54
S'Xili Parx'
p726
ssS'1135262243'
p727
(dp728
g58
S'2008-09-28 12:32:56'
p729
sg60
S'DEVO SLINGSHOT'
p730
sg62
I99
sg63
S'ministry of media'
p731
sg65
S'Tayasha Tammas'
p732
ssS'1210643877'
p733
(dp734
g7
S'2008-11-08 08:58:03'
p735
sg9
S'DEVO DRILLER'
p736
sg11
I99
sg12
S'Aura'
p737
sg14
S'Hallie Galli'
p738
ssS'1114489396'
p739
(dp740
g333
S'2008-09-16 16:52:59'
p741
sg335
S'DEVO SLINGSHOT'
p742
sg337
I99
sg338
S'ministry of media'
p743
sg340
S'Vasean Talamasca'
p744
ssS'1135696688'
p745
(dp746
g58
S'2008-09-28 17:04:29'
p747
sg60
S'DEVO WAND'
p748
sg62
I299
sg63
S'ministry of media'
p749
sg65
S'Jinxy Seoul'
p750
ssS'1200347597'
p751
(dp752
g7
S'2008-11-02 15:34:46'
p753
sg9
S'DEVO LOLITA GLASSES'
p754
sg11
I99
sg12
S'Aura'
p755
sg14
S'Tate Scribe'
p756
ssS'1134338478'
p757
(dp758
g58
S'2008-09-28 00:03:57'
p759
sg60
S'DEVO BOMB JETPACK'
p760
sg62
I99
sg63
S'Mostly Harmless'
p761
sg65
S'Constance Maurer'
p762
ssS'1246527546'
p763
(dp764
S'date'
p765
S'2008-11-27 11:15:38'
p766
sS'item'
p767
S'DEVO TV'
p768
sS'amount'
p769
I499
sS'location'
p770
S'Aura'
p771
sS'name'
p772
S'Xue Udimo'
p773
ssS'1177439449'
p774
(dp775
g7
S'2008-10-21 13:05:00'
p776
sg9
S'DEVO BEEHIVE'
p777
sg11
I99
sg12
S'Floyd'
p778
sg14
S'Stein Shilova'
p779
ssS'1135698835'
p780
(dp781
g58
S'2008-09-28 17:06:01'
p782
sg60
S'DEVO FATAL BED'
p783
sg62
I299
sg63
S'ministry of media'
p784
sg65
S'Jinxy Seoul'
p785
ssS'1187133146'
p786
(dp787
g7
S'2008-10-26 16:02:07'
p788
sg9
S'DEVO BEEHIVE'
p789
sg11
I99
sg12
S'Floyd'
p790
sg14
S'Jiao Imako'
p791
ssS'1281755633'
p792
(dp793
g47
S'2008-12-15 06:53:02'
p794
sg49
S'DEVO ACCORDIAN'
p795
sg51
I299
sg52
S'Floyd'
p796
sg54
S'Mariya Nesiote'
p797
ssS'1255879787'
p798
(dp799
S'date'
p800
S'2008-12-02 06:17:16'
p801
sS'item'
p802
S'DEVO SEX BOMB'
p803
sS'amount'
p804
I1
sS'location'
p805
S'Aura'
p806
sS'name'
p807
S'Morning Devin'
p808
ssS'1194772440'
p809
(dp810
g7
S'2008-10-30 17:41:49'
p811
sg9
S'DEVO ACCORDIAN'
p812
sg11
I299
sg12
S'Aura'
p813
sg14
S'Poor Marksman'
p814
ssS'1114490997'
p815
(dp816
g333
S'2008-09-16 16:54:10'
p817
sg335
S'DEVO STILTS'
p818
sg337
I299
sg338
S'ministry of media'
p819
sg340
S'Vasean Talamasca'
p820
ssS'1200555785'
p821
(dp822
g7
S'2008-11-02 18:00:45'
p823
sg9
S'DEVO BIRD BOWL HAT'
p824
sg11
I299
sg12
S'Aura'
p825
sg14
S'Hugo Plessis'
p826
ssS'1240123265'
p827
(dp828
g154
S'2008-11-24 01:13:29'
p829
sg156
S'DEVO SLINGSHOT'
p830
sg158
I99
sg159
S'Aura'
p831
sg161
S'Chastity Naxos'
p832
ssS'1267290341'
p833
(dp834
S'date'
p835
S'2008-12-07 20:28:53'
p836
sS'item'
p837
S'DEVO SEX BOMB'
p838
sS'amount'
p839
I1
sS'location'
p840
S'Aura'
p841
sS'name'
p842
S'Sparka Milo'
p843
ssS'1272982063'
p844
(dp845
S'date'
p846
S'2008-12-10 18:16:29'
p847
sS'item'
p848
S'DEVO CANE'
p849
sS'amount'
p850
I99
sS'location'
p851
S'Aura'
p852
sS'name'
p853
S'Eolene Uralia'
p854
ssS'1216270638'
p855
(dp856
S'date'
p857
S'2008-11-11 05:52:02'
p858
sS'item'
p859
S'DEVO BEEHIVE'
p860
sS'amount'
p861
I99
sS'location'
p862
S'Floyd'
p863
sS'name'
p864
S'danana Dodonpa'
p865
ssS'1258213163'
p866
(dp867
S'date'
p868
S'2008-12-03 09:37:41'
p869
sS'item'
p870
S'DEVO SEX BOMB'
p871
sS'amount'
p872
I1
sS'location'
p873
S'Aura'
p874
sS'name'
p875
S'Gattina Dumpling'
p876
ssS'1256088663'
p877
(dp878
g800
S'2008-12-02 08:54:34'
p879
sg802
S'DEVO SEX BOMB'
p880
sg804
I1
sg805
S'Aura'
p881
sg807
S'Soy Radikal'
p882
ssS'1210643434'
p883
(dp884
g7
S'2008-11-08 08:57:45'
p885
sg9
S'DEVO ZAPPER'
p886
sg11
I99
sg12
S'Aura'
p887
sg14
S'Hallie Galli'
p888
ssS'1226720615'
p889
(dp890
S'date'
p891
S'2008-11-16 19:03:32'
p892
sS'item'
p893
S'DEVO SLINGSHOT'
p894
sS'amount'
p895
I99
sS'location'
p896
S'Floyd'
p897
sS'name'
p898
S'LilyRose Laville'
p899
ssS'1261478772'
p900
(dp901
g165
S'2008-12-05 00:35:33'
p902
sg167
S'DEVO SEX BOMB'
p903
sg169
I1
sg170
S'Aura'
p904
sg172
S'TommyLee Nightfire'
p905
ssS'1195752948'
p906
(dp907
g7
S'2008-10-31 08:36:28'
p908
sg9
S'DEVO SLINGSHOT'
p909
sg11
I99
sg12
S'Aura'
p910
sg14
S'Lucien Vertes'
p911
ssS'1282396236'
p912
(dp913
S'date'
p914
S'2008-12-15 13:57:03'
p915
sS'item'
p916
S'DEVO SEX BOMB'
p917
sS'amount'
p918
I1
sS'location'
p919
S'Aura'
p920
sS'name'
p921
S'DahliaJames GossipGirl'
p922
ssS'1267121278'
p923
(dp924
S'date'
p925
S'2008-12-07 18:37:35'
p926
sS'item'
p927
S'DEVO SEX BOMB'
p928
sS'amount'
p929
I1
sS'location'
p930
S'Aura'
p931
sS'name'
p932
S'Abra Exonar'
p933
ssS'1213362312'
p934
(dp935
S'date'
p936
S'2008-11-09 16:27:32'
p937
sS'item'
p938
S'DEVO ACCORDIAN'
p939
sS'amount'
p940
I299
sS'location'
p941
S'Floyd'
p942
sS'name'
p943
S'Olivia Connaught'
p944
ssS'1231533071'
p945
(dp946
S'date'
p947
S'2008-11-19 11:47:01'
p948
sS'item'
p949
S'DEVO LEGLESS'
p950
sS'amount'
p951
I299
sS'location'
p952
S'Floyd'
p953
sS'name'
p954
S'Delilahlee Westland'
p955
ssS'1159446971'
p956
(dp957
g7
S'2008-10-11 18:43:33'
p958
sg9
S'DEVO ACCORDIAN'
p959
sg11
I299
sg12
S'Mostly Harmless'
p960
sg14
S'Kris Electricteeth'
p961
ssS'1216273462'
p962
(dp963
g857
S'2008-11-11 05:54:31'
p964
sg859
S'DEVO LEGLESS'
p965
sg861
I299
sg862
S'Floyd'
p966
sg864
S'danana Dodonpa'
p967
ssS'1177437545'
p968
(dp969
g7
S'2008-10-21 13:03:55'
p970
sg9
S'DEVO ACCORDIAN'
p971
sg11
I299
sg12
S'Floyd'
p972
sg14
S'Stein Shilova'
p973
ssS'1107590819'
p974
(dp975
g228
S'2008-09-12 22:07:22'
p976
sg230
S'DEVO TV'
p977
sg232
I499
sg233
S'ministry of media'
p978
sg235
S'Kira Paderborn'
p979
ssS'1135698032'
p980
(dp981
g58
S'2008-09-28 17:05:26'
p982
sg60
S'DEVO CANE'
p983
sg62
I99
sg63
S'ministry of media'
p984
sg65
S'Jinxy Seoul'
p985
ssS'1256179885'
p986
(dp987
g800
S'2008-12-02 09:56:02'
p988
sg802
S'DEVO ORANGE TREE'
p989
sg804
I299
sg805
S'Aura'
p990
sg807
S'Arabella Luminos'
p991
ssS'1130099428'
p992
(dp993
g287
S'2008-09-25 14:52:25'
p994
sg289
S'DEVO GHOST'
p995
sg291
I299
sg292
S'ministry of media'
p996
sg294
S'Mischa Bullard'
p997
ssS'1200549257'
p998
(dp999
g7
S'2008-11-02 17:56:18'
p1000
sg9
S'DEVO BOMB JETPACK'
p1001
sg11
I99
sg12
S'Aura'
p1002
sg14
S'Hugo Plessis'
p1003
ssS'1176651835'
p1004
(dp1005
g7
S'2008-10-21 02:30:38'
p1006
sg9
S'DEVO BOMB JETPACK'
p1007
sg11
I99
sg12
S'Mostly Harmless'
p1008
sg14
S'Mur Attenborough'
p1009
ssS'1164134752'
p1010
(dp1011
g7
S'2008-10-14 06:41:31'
p1012
sg9
S'DEVO CANE'
p1013
sg11
I99
sg12
S'ministry of media'
p1014
sg14
S'Hiro Geesink'
p1015
ssS'1266943607'
p1016
(dp1017
g925
S'2008-12-07 16:48:09'
p1018
sg927
S'DEVO SEX BOMB'
p1019
sg929
I1
sg930
S'Aura'
p1020
sg932
S'Casia Serpente'
p1021
ssS'1281667609'
p1022
(dp1023
g47
S'2008-12-15 05:38:44'
p1024
sg49
S'DEVO SEX BOMB'
p1025
sg51
I1
sg52
S'Aura'
p1026
sg54
S'Rosely Reggiane'
p1027
ssS'1211313650'
p1028
(dp1029
g7
S'2008-11-08 15:50:51'
p1030
sg9
S'DEVO SLINGSHOT'
p1031
sg11
I99
sg12
S'Aura'
p1032
sg14
S'Davon Iwish'
p1033
ssS'1258930176'
p1034
(dp1035
g103
S'2008-12-03 16:39:55'
p1036
sg105
S'DEVO BOMB JETPACK'
p1037
sg107
I99
sg108
S'Floyd'
p1038
sg110
S'Ozone Franizzi'
p1039
ssS'1284668152'
p1040
(dp1041
g188
S'12/16/2008 15:05:15'
p1042
sg190
S'DEVO SEX BOMB'
p1043
sg192
I1
sg193
S'Aura'
p1044
sg195
S'EVAYADAN Aeon'
p1045
ssS'1221799932'
p1046
(dp1047
g120
S'2008-11-14 08:57:39'
p1048
sg122
S'DEVO WAND'
p1049
sg124
I299
sg125
S'Floyd'
p1050
sg127
S'Olivia Starbrook'
p1051
ssS'1281622308'
p1052
(dp1053
g47
S'2008-12-15 04:58:19'
p1054
sg49
S'DEVO SEX BOMB'
p1055
sg51
I1
sg52
S'Aura'
p1056
sg54
S'Morgann Matova'
p1057
ssS'1206365612'
p1058
(dp1059
g7
S'2008-11-05 22:14:43'
p1060
sg9
S'DEVO CANE'
p1061
sg11
I99
sg12
S'Floyd'
p1062
sg14
S'Minerva Minton'
p1063
ssS'1282906654'
p1064
(dp1065
S'date'
p1066
S'2008-12-15 19:16:10'
p1067
sS'item'
p1068
S'DEVO SEX BOMB'
p1069
sS'amount'
p1070
I1
sS'location'
p1071
S'Aura'
p1072
sS'name'
p1073
S'biancajade Ryba'
p1074
ssS'1281712253'
p1075
(dp1076
g47
S'2008-12-15 06:16:45'
p1077
sg49
S'DEVO SEX BOMB'
p1078
sg51
I1
sg52
S'Aura'
p1079
sg54
S'Madalena Sosa'
p1080
ssS'1115122268'
p1081
(dp1082
g333
S'2008-09-17 02:48:58'
p1083
sg335
S'DEVO GHOST'
p1084
sg337
I299
sg338
S'ministry of media'
p1085
sg340
S'Bazz Zeiler'
p1086
ssS'1114491075'
p1087
(dp1088
g333
S'2008-09-16 16:54:14'
p1089
sg335
S'DEVO BOMB JETPACK'
p1090
sg337
I99
sg338
S'ministry of media'
p1091
sg340
S'Vasean Talamasca'
p1092
ssS'1130101405'
p1093
(dp1094
g287
S'2008-09-25 14:53:49'
p1095
sg289
S'DEVO TV'
p1096
sg291
I499
sg292
S'ministry of media'
p1097
sg294
S'Mischa Bullard'
p1098
ssS'1219660452'
p1099
(dp1100
g526
S'2008-11-13 02:36:19'
p1101
sg528
S'DEVO HAMMER'
p1102
sg530
I299
sg531
S'Floyd'
p1103
sg533
S'Messamo House'
p1104
ssS'1283101082'
p1105
(dp1106
g188
S'2008-12-15 21:37:20'
p1107
sg190
S'DEVO SEX BOMB'
p1108
sg192
I1
sg193
S'Aura'
p1109
sg195
S'LuzBella Magic'
p1110
ssS'1282438290'
p1111
(dp1112
g914
S'2008-12-15 14:20:59'
p1113
sg916
S'DEVO SEX BOMB'
p1114
sg918
I1
sg919
S'Aura'
p1115
sg921
S'asami Turbo'
p1116
ssS'1283212256'
p1117
(dp1118
g188
S'2008-12-15 23:13:09'
p1119
sg190
S'DEVO SEX BOMB'
p1120
sg192
I1
sg193
S'Aura'
p1121
sg195
S'Dalis Juran'
p1122
ssS'1260622798'
p1123
(dp1124
S'date'
p1125
S'2008-12-04 14:19:04'
p1126
sS'item'
p1127
S'DEVO SEX BOMB'
p1128
sS'amount'
p1129
I1
sS'location'
p1130
S'Aura'
p1131
sS'name'
p1132
S'Alec Spiegelblatt'
p1133
ssS'1194298050'
p1134
(dp1135
g7
S'2008-10-30 12:24:19'
p1136
sg9
S'DEVO BEEHIVE'
p1137
sg11
I99
sg12
S'Floyd'
p1138
sg14
S'RizoKobold Minotaur'
p1139
ssS'1264498391'
p1140
(dp1141
g165
S'2008-12-06 13:51:31'
p1142
sg167
S'DEVO CANE'
p1143
sg169
I99
sg170
S'Aura'
p1144
sg172
S'Karen28 Enzo'
p1145
ssS'1265601962'
p1146
(dp1147
g165
S'2008-12-07 02:39:06'
p1148
sg167
S'DEVO WAND'
p1149
sg169
I299
sg170
S'Floyd'
p1150
sg172
S'Goldilocks Placebo'
p1151
ssS'1114490258'
p1152
(dp1153
g333
S'2008-09-16 16:53:38'
p1154
sg335
S'DEVO DRILLER'
p1155
sg337
I99
sg338
S'ministry of media'
p1156
sg340
S'Vasean Talamasca'
p1157
ssS'1115127926'
p1158
(dp1159
g333
S'2008-09-17 02:56:10'
p1160
sg335
S'DEVO SLINGSHOT'
p1161
sg337
I99
sg338
S'ministry of media'
p1162
sg340
S'Bazz Zeiler'
p1163
ssS'1263347301'
p1164
(dp1165
g165
S'2008-12-05 23:31:48'
p1166
sg167
S'DEVO SEX BOMB'
p1167
sg169
I1
sg170
S'Aura'
p1168
sg172
S'Menthal Oh'
p1169
ssS'1198703734'
p1170
(dp1171
g7
S'2008-11-01 20:08:32'
p1172
sg9
S'DEVO WAND'
p1173
sg11
I299
sg12
S'Mostly Harmless'
p1174
sg14
S'Hallie Galli'
p1175
ssS'1158728925'
p1176
(dp1177
g7
S'2008-10-11 11:15:45'
p1178
sg9
S'DEVO DRILLER'
p1179
sg11
I99
sg12
S'ministry of media'
p1180
sg14
S'Ianna Rhiadra'
p1181
ssS'1114489983'
p1182
(dp1183
g333
S'2008-09-16 16:53:26'
p1184
sg335
S'DEVO BEANIE'
p1185
sg337
I99
sg338
S'ministry of media'
p1186
sg340
S'Vasean Talamasca'
p1187
ssS'1254553422'
p1188
(dp1189
S'date'
p1190
S'2008-12-01 14:40:49'
p1191
sS'item'
p1192
S'DEVO SEX BOMB'
p1193
sS'amount'
p1194
I1
sS'location'
p1195
S'Aura'
p1196
sS'name'
p1197
S'Zuzu Gothly'
p1198
ssS'1173415594'
p1199
(dp1200
g7
S'2008-10-19 11:13:28'
p1201
sg9
S'DEVO ZAPPER'
p1202
sg11
I99
sg12
S'Aura'
p1203
sg14
S'nero Basevi'
p1204
ssS'1227044344'
p1205
(dp1206
g211
S'2008-11-16 23:52:07'
p1207
sg213
S'DEVO BIRD BOWL HAT'
p1208
sg215
I299
sg216
S'Aura'
p1209
sg218
S'Jennette Forager'
p1210
ssS'1114489028'
p1211
(dp1212
g333
S'2008-09-16 16:52:41'
p1213
sg335
S'DEVO WAND'
p1214
sg337
I299
sg338
S'ministry of media'
p1215
sg340
S'Vasean Talamasca'
p1216
ssS'1254032287'
p1217
(dp1218
g398
S'2008-12-01 09:19:37'
p1219
sg400
S'DEVO SEX BOMB'
p1220
sg402
I1
sg403
S'Aura'
p1221
sg405
S'Duncan Watler'
p1222
ssS'1181930553'
p1223
(dp1224
g7
S'2008-10-24 01:20:36'
p1225
sg9
S'DEVO ORANGE TREE'
p1226
sg11
I299
sg12
S'Floyd'
p1227
sg14
S'Arabella Steadham'
p1228
ssS'1130100815'
p1229
(dp1230
g287
S'2008-09-25 14:53:24'
p1231
sg289
S'DEVO SLINGSHOT'
p1232
sg291
I99
sg292
S'ministry of media'
p1233
sg294
S'Mischa Bullard'
p1234
ssS'1272892283'
p1235
(dp1236
g846
S'2008-12-10 17:16:15'
p1237
sg848
S'DEVO SEX BOMB'
p1238
sg850
I1
sg851
S'Aura'
p1239
sg853
S'Madge Snoodle'
p1240
ssS'1115125671'
p1241
(dp1242
g333
S'2008-09-17 02:53:17'
p1243
sg335
S'DEVO LOLITA GLASSES'
p1244
sg337
I99
sg338
S'ministry of media'
p1245
sg340
S'Del May'
p1246
ssS'1244545660'
p1247
(dp1248
S'date'
p1249
S'2008-11-26 09:40:30'
p1250
sS'item'
p1251
S'DEVO STILTS'
p1252
sS'amount'
p1253
I299
sS'location'
p1254
S'Floyd'
p1255
sS'name'
p1256
S'Craig Coen'
p1257
ssS'1170830020'
p1258
(dp1259
g7
S'2008-10-18 02:00:36'
p1260
sg9
S'DEVO LOLITA GLASSES'
p1261
sg11
I99
sg12
S'Floyd'
p1262
sg14
S'Eloise Warburton'
p1263
ssS'1285032145'
p1264
(dp1265
g188
S'12/16/2008 18:58:00'
p1266
sg190
S'DEVO SEX BOMB'
p1267
sg192
I1
sg193
S'Aura'
p1268
sg195
S'momo Beatty'
p1269
ssS'1264348570'
p1270
(dp1271
g165
S'2008-12-06 12:26:55'
p1272
sg167
S'DEVO ACCORDIAN'
p1273
sg169
I299
sg170
S'Mostly Harmless'
p1274
sg172
S'Drangea Lyndhurst'
p1275
ssS'1265355664'
p1276
(dp1277
g165
S'2008-12-06 22:49:50'
p1278
sg167
S'DEVO SEX BOMB'
p1279
sg169
I1
sg170
S'Aura'
p1280
sg172
S'Sonnet Teardrop'
p1281
ssS'1252283303'
p1282
(dp1283
S'date'
p1284
S'2008-11-30 11:56:05'
p1285
sS'item'
p1286
S'DEVO SEX BOMB'
p1287
sS'amount'
p1288
I1
sS'location'
p1289
S'Aura'
p1290
sS'name'
p1291
S'Hiro Geesink'
p1292
ssS'1220747737'
p1293
(dp1294
g682
S'2008-11-13 16:36:39'
p1295
sg684
S'DEVO WAND'
p1296
sg686
I299
sg687
S'Floyd'
p1297
sg689
S'Mishka Myoo'
p1298
ssS'1283026715'
p1299
(dp1300
g188
S'2008-12-15 20:39:20'
p1301
sg190
S'DEVO SEX BOMB'
p1302
sg192
I1
sg193
S'Aura'
p1303
sg195
S'lolaah Miami'
p1304
ssS'1282397785'
p1305
(dp1306
g914
S'2008-12-15 13:57:55'
p1307
sg916
S'DEVO SEX BOMB'
p1308
sg918
I1
sg919
S'Aura'
p1309
sg921
S'Lunna Wilder'
p1310
ssS'1281746614'
p1311
(dp1312
g47
S'2008-12-15 06:45:32'
p1313
sg49
S'DEVO ACCORDIAN'
p1314
sg51
I299
sg52
S'Floyd'
p1315
sg54
S'TR Ulysses'
p1316
ssS'1194295981'
p1317
(dp1318
g7
S'2008-10-30 12:22:58'
p1319
sg9
S'DEVO SLINGSHOT'
p1320
sg11
I99
sg12
S'Floyd'
p1321
sg14
S'RizoKobold Minotaur'
p1322
ssS'1177451409'
p1323
(dp1324
g7
S'2008-10-21 13:12:04'
p1325
sg9
S'DEVO STILTS'
p1326
sg11
I299
sg12
S'Floyd'
p1327
sg14
S'Stein Shilova'
p1328
ssS'1282368988'
p1329
(dp1330
g914
S'2008-12-15 13:41:46'
p1331
sg916
S'DEVO SEX BOMB'
p1332
sg918
I1
sg919
S'Aura'
p1333
sg921
S'Tinus Koskinen'
p1334
ssS'1200546108'
p1335
(dp1336
g7
S'2008-11-02 17:54:09'
p1337
sg9
S'DEVO LOLITA GLASSES'
p1338
sg11
I99
sg12
S'Aura'
p1339
sg14
S'Hugo Plessis'
p1340
ssS'1110699085'
p1341
(dp1342
S'date'
p1343
S'2008-09-14 14:42:29'
p1344
sS'item'
p1345
S'DEVO LOLITA GLASSES'
p1346
sS'amount'
p1347
I99
sS'location'
p1348
S'ministry of media'
p1349
sS'name'
p1350
S'Valarie Vendetta'
p1351
ssS'1281820152'
p1352
(dp1353
g47
S'2008-12-15 07:44:06'
p1354
sg49
S'DEVO SEX BOMB'
p1355
sg51
I1
sg52
S'Aura'
p1356
sg54
S'Merrie Jewell'
p1357
ssS'1212751383'
p1358
(dp1359
g7
S'2008-11-09 10:32:02'
p1360
sg9
S'DEVO SLINGSHOT'
p1361
sg11
I99
sg12
S'Aura'
p1362
sg14
S'AvaBright Magic'
p1363
ssS'1224090576'
p1364
(dp1365
g120
S'2008-11-15 12:41:30'
p1366
sg122
S'DEVO CANE'
p1367
sg124
I99
sg125
S'Floyd'
p1368
sg127
S'Cruz Gabardini'
p1369
ssS'1227045635'
p1370
(dp1371
g211
S'2008-11-16 23:53:35'
p1372
sg213
S'DEVO PETS'
p1373
sg215
I499
sg216
S'Aura'
p1374
sg218
S'Jennette Forager'
p1375
ssS'1162420136'
p1376
(dp1377
g7
S'2008-10-13 10:24:19'
p1378
sg9
S'DEVO LEGLESS'
p1379
sg11
I299
sg12
S'ministry of media'
p1380
sg14
S'shayne Footman'
p1381
ssS'1247239596'
p1382
(dp1383
g1284
S'2008-11-27 20:05:33'
p1384
sg1286
S'DEVO LEGLESS'
p1385
sg1288
I299
sg1289
S'Floyd'
p1386
sg1291
S'xSaraho Mornington'
p1387
ssS'1285340677'
p1388
(dp1389
g188
S'12/16/2008 22:50:00'
p1390
sg190
S'DEVO SEX BOMB'
p1391
sg192
I1
sg193
S'Aura'
p1392
sg195
S'SpaceCase Munster'
p1393
ssS'1216314357'
p1394
(dp1395
g857
S'2008-11-11 06:28:51'
p1396
sg859
S'DEVO BOMB JETPACK'
p1397
sg861
I99
sg862
S'Mostly Harmless'
p1398
sg864
S'Sarahlin Constantine'
p1399
ssS'1257041358'
p1400
(dp1401
S'date'
p1402
S'2008-12-02 18:27:11'
p1403
sS'item'
p1404
S'DEVO SEX BOMB'
p1405
sS'amount'
p1406
I1
sS'location'
p1407
S'Aura'
p1408
sS'name'
p1409
S'Marinda Meili'
p1410
ssS'1209147569'
p1411
(dp1412
g7
S'2008-11-07 13:22:23'
p1413
sg9
S'DEVO STILTS'
p1414
sg11
I299
sg12
S'Aura'
p1415
sg14
S'Drin Brewster'
p1416
ssS'1281756889'
p1417
(dp1418
g47
S'2008-12-15 06:54:05'
p1419
sg49
S'DEVO SEX BOMB'
p1420
sg51
I1
sg52
S'Aura'
p1421
sg54
S'Phebe Foxtrot'
p1422
ssS'1114490937'
p1423
(dp1424
g333
S'2008-09-16 16:54:08'
p1425
sg335
S'DEVO BEEHIVE'
p1426
sg337
I99
sg338
S'ministry of media'
p1427
sg340
S'Vasean Talamasca'
p1428
ssS'1187776962'
p1429
(dp1430
g7
S'2008-10-27 00:04:16'
p1431
sg9
S'DEVO ZAPPER'
p1432
sg11
I99
sg12
S'Floyd'
p1433
sg14
S'Darla Zelnik'
p1434
ssS'1110638790'
p1435
(dp1436
g1343
S'2008-09-14 14:05:36'
p1437
sg1345
S'DEVO CANE'
p1438
sg1347
I99
sg1348
S'ministry of media'
p1439
sg1350
S'Griete Rasmuson'
p1440
ssS'1227710009'
p1441
(dp1442
g211
S'2008-11-17 10:13:36'
p1443
sg213
S'DEVO STILTS'
p1444
sg215
I299
sg216
S'Mostly Harmless'
p1445
sg218
S'Geneva Kaufmann'
p1446
ssS'1234210395'
p1447
(dp1448
g154
S'2008-11-20 22:49:31'
p1449
sg156
S'DEVO ACCORDIAN'
p1450
sg158
I299
sg159
S'Floyd'
p1451
sg161
S'Dahlia Eilde'
p1452
ssS'1181725149'
p1453
(dp1454
g7
S'2008-10-23 21:48:46'
p1455
sg9
S'DEVO BEEHIVE'
p1456
sg11
I99
sg12
S'Floyd'
p1457
sg14
S'Elora Lunasea'
p1458
ssS'1281692925'
p1459
(dp1460
g47
S'2008-12-15 06:00:38'
p1461
sg49
S'DEVO SEX BOMB'
p1462
sg51
I1
sg52
S'Aura'
p1463
sg54
S'Allison Aviatik'
p1464
ssS'1284538823'
p1465
(dp1466
g188
S'12/16/2008 13:52:49'
p1467
sg190
S'DEVO SEX BOMB'
p1468
sg192
I1
sg193
S'Aura'
p1469
sg195
S'GuDuLe Insoo'
p1470
ssS'1200543170'
p1471
(dp1472
g7
S'2008-11-02 17:52:10'
p1473
sg9
S'DEVO DISCO'
p1474
sg11
I499
sg12
S'Aura'
p1475
sg14
S'Hugo Plessis'
p1476
ssS'1135698109'
p1477
(dp1478
g58
S'2008-09-28 17:05:29'
p1479
sg60
S'DEVO GHOST'
p1480
sg62
I299
sg63
S'ministry of media'
p1481
sg65
S'Jinxy Seoul'
p1482
ssS'1282101086'
p1483
(dp1484
g47
S'2008-12-15 11:00:20'
p1485
sg49
S'DEVO SEX BOMB'
p1486
sg51
I1
sg52
S'Aura'
p1487
sg54
S'Sin Vesta'
p1488
ssS'1198702735'
p1489
(dp1490
g7
S'2008-11-01 20:07:52'
p1491
sg9
S'DEVO PETS'
p1492
sg11
I499
sg12
S'Mostly Harmless'
p1493
sg14
S'Hallie Galli'
p1494
ssS'1272981259'
p1495
(dp1496
g846
S'2008-12-10 18:15:56'
p1497
sg848
S'DEVO SLINGSHOT'
p1498
sg850
I99
sg851
S'Aura'
p1499
sg853
S'Eolene Uralia'
p1500
ssS'1279753249'
p1501
(dp1502
g47
S'2008-12-14 06:35:34'
p1503
sg49
S'DEVO BEEHIVE'
p1504
sg51
I99
sg52
S'Aura'
p1505
sg54
S'Sydney Ashdene'
p1506
ssS'1115131968'
p1507
(dp1508
g333
S'2008-09-17 03:01:06'
p1509
sg335
S'DEVO APERTURE GATE'
p1510
sg337
I299
sg338
S'ministry of media'
p1511
sg340
S'Del May'
p1512
ssS'1148532801'
p1513
(dp1514
S'date'
p1515
S'2008-10-05 19:30:45'
p1516
sS'item'
p1517
S'DEVO CANE'
p1518
sS'amount'
p1519
I99
sS'location'
p1520
S'ministry of media'
p1521
sS'name'
p1522
S'Mirja Bonetto'
p1523
ssS'1283995282'
p1524
(dp1525
g188
S'2008-12-16 08:11:29'
p1526
sg190
S'DEVO SEX BOMB'
p1527
sg192
I1
sg193
S'Aura'
p1528
sg195
S'kagabandurriasconcuerdas Flanagan'
p1529
ssS'1135315163'
p1530
(dp1531
g58
S'2008-09-28 13:03:56'
p1532
sg60
S'DEVO WAND'
p1533
sg62
I299
sg63
S'ministry of media'
p1534
sg65
S'Lizz Seetan'
p1535
ssS'1266611460'
p1536
(dp1537
g165
S'2008-12-07 13:45:53'
p1538
sg167
S'DEVO LOLITA GLASSES'
p1539
sg169
I99
sg170
S'Aura'
p1540
sg172
S'Harlow Courtois'
p1541
ssS'1148818764'
p1542
(dp1543
g1515
S'2008-10-05 23:52:18'
p1544
sg1517
S'DEVO LEGLESS'
p1545
sg1519
I299
sg1520
S'ministry of media'
p1546
sg1522
S'Miabella Foxley'
p1547
ssS'1121543642'
p1548
(dp1549
g443
S'2008-09-20 18:44:03'
p1550
sg445
S'DEVO LOLITA GLASSES'
p1551
sg447
I99
sg448
S'ministry of media'
p1552
sg450
S'Wizard Gynoid'
p1553
ssS'1210643802'
p1554
(dp1555
g7
S'2008-11-08 08:58:00'
p1556
sg9
S'DEVO HAMMER'
p1557
sg11
I299
sg12
S'Aura'
p1558
sg14
S'Hallie Galli'
p1559
ssS'1141876109'
p1560
(dp1561
g310
S'2008-10-02 06:44:26'
p1562
sg312
S'DEVO BEEHIVE'
p1563
sg314
I99
sg315
S'Mostly Harmless'
p1564
sg317
S'Lizzie Habercom'
p1565
ssS'1221642360'
p1566
(dp1567
g120
S'2008-11-14 06:52:28'
p1568
sg122
S'DEVO WAND'
p1569
sg124
I299
sg125
S'Floyd'
p1570
sg127
S'Karisyn13 GossipGirl'
p1571
ssS'1211974388'
p1572
(dp1573
g7
S'2008-11-08 23:52:21'
p1574
sg9
S'DEVO SLINGSHOT'
p1575
sg11
I99
sg12
S'Mostly Harmless'
p1576
sg14
S'Stormie Sweetwater'
p1577
ssS'1282508256'
p1578
(dp1579
g914
S'2008-12-15 15:02:02'
p1580
sg916
S'DEVO SEX BOMB'
p1581
sg918
I1
sg919
S'Aura'
p1582
sg921
S'Bunnie Pelous'
p1583
ssS'1172299784'
p1584
(dp1585
g7
S'2008-10-18 19:50:51'
p1586
sg9
S'DEVO ORANGE TREE'
p1587
sg11
I299
sg12
S'Floyd'
p1588
sg14
S'Apatia Hammerer'
p1589
ssS'1281743609'
p1590
(dp1591
g47
S'2008-12-15 06:43:01'
p1592
sg49
S'DEVO SEX BOMB'
p1593
sg51
I1
sg52
S'Aura'
p1594
sg54
S'Kevyn GossipGirl'
p1595
ssS'1135696251'
p1596
(dp1597
g58
S'2008-09-28 17:04:12'
p1598
sg60
S'DEVO CANE'
p1599
sg62
I99
sg63
S'ministry of media'
p1600
sg65
S'Mischa Bullard'
p1601
ssS'1207802167'
p1602
(dp1603
g7
S'2008-11-06 18:07:10'
p1604
sg9
S'DEVO MONO LAMP'
p1605
sg11
I99
sg12
S'Floyd'
p1606
sg14
S'Olaenka Chesnokov'
p1607
ssS'1135697862'
p1608
(dp1609
g58
S'2008-09-28 17:05:18'
p1610
sg60
S'DEVO LEGLESS'
p1611
sg62
I299
sg63
S'ministry of media'
p1612
sg65
S'Jinxy Seoul'
p1613
ssS'1244286299'
p1614
(dp1615
g1249
S'2008-11-26 06:13:32'
p1616
sg1251
S'DEVO HEADSHRINKER COUCH'
p1617
sg1253
I299
sg1254
S'Floyd'
p1618
sg1256
S'Sithut Tammas'
p1619
ssS'1177475507'
p1620
(dp1621
g7
S'2008-10-21 13:26:06'
p1622
sg9
S'DEVO PETS'
p1623
sg11
I499
sg12
S'Floyd'
p1624
sg14
S'Apatia Hammerer'
p1625
ssS'1115128291'
p1626
(dp1627
g333
S'2008-09-17 02:56:39'
p1628
sg335
S'DEVO ORANGE TREE'
p1629
sg337
I299
sg338
S'ministry of media'
p1630
sg340
S'Bazz Zeiler'
p1631
ssS'1155133174'
p1632
(dp1633
S'date'
p1634
S'2008-10-09 12:07:03'
p1635
sS'item'
p1636
S'DEVO 1 PRIM COUCH'
p1637
sS'amount'
p1638
I99
sS'location'
p1639
S'Mostly Harmless'
p1640
sS'name'
p1641
S'Zap Hax'
p1642
ssS'1224091719'
p1643
(dp1644
g120
S'2008-11-15 12:42:08'
p1645
sg122
S'DEVO SLINGSHOT'
p1646
sg124
I99
sg125
S'Floyd'
p1647
sg127
S'Cruz Gabardini'
p1648
ssS'1266612239'
p1649
(dp1650
g165
S'2008-12-07 13:46:17'
p1651
sg167
S'DEVO ZAPPER'
p1652
sg169
I99
sg170
S'Aura'
p1653
sg172
S'Harlow Courtois'
p1654
ssS'1277325267'
p1655
(dp1656
g47
S'2008-12-13 01:11:53'
p1657
sg49
S'DEVO SEX BOMB'
p1658
sg51
I1
sg52
S'Aura'
p1659
sg54
S'Caron Beres'
p1660
ssS'1249987511'
p1661
(dp1662
g1284
S'2008-11-29 09:18:34'
p1663
sg1286
S'DEVO CANE'
p1664
sg1288
I99
sg1289
S'Floyd'
p1665
sg1291
S'Rivermaid Noel'
p1666
ssS'1283136800'
p1667
(dp1668
g188
S'2008-12-15 22:05:43'
p1669
sg190
S'DEVO SEX BOMB'
p1670
sg192
I1
sg193
S'Aura'
p1671
sg195
S'druxiria Magic'
p1672
ssS'1206376316'
p1673
(dp1674
g7
S'2008-11-05 22:25:51'
p1675
sg9
S'DEVO WAND'
p1676
sg11
I299
sg12
S'Floyd'
p1677
sg14
S'Minerva Minton'
p1678
ssS'1266583455'
p1679
(dp1680
g165
S'2008-12-07 13:31:24'
p1681
sg167
S'DEVO SLINGSHOT'
p1682
sg169
I99
sg170
S'Aura'
p1683
sg172
S'Abaigeal McMillan'
p1684
ssS'1107586942'
p1685
(dp1686
g228
S'2008-09-12 22:03:50'
p1687
sg230
S'DEVO WAND'
p1688
sg232
I299
sg233
S'ministry of media'
p1689
sg235
S'Kira Paderborn'
p1690
ssS'1177437002'
p1691
(dp1692
g7
S'2008-10-21 13:03:37'
p1693
sg9
S'DEVO SLINGSHOT'
p1694
sg11
I99
sg12
S'Floyd'
p1695
sg14
S'Stein Shilova'
p1696
ssS'1285376045'
p1697
(dp1698
g188
S'12/16/2008 23:23:40'
p1699
sg190
S'DEVO SEX BOMB'
p1700
sg192
I1
sg193
S'Aura'
p1701
sg195
S'Kelina Hessely'
p1702
ssS'1114490182'
p1703
(dp1704
g333
S'2008-09-16 16:53:34'
p1705
sg335
S'DEVO ZAPPER'
p1706
sg337
I99
sg338
S'ministry of media'
p1707
sg340
S'Vasean Talamasca'
p1708
ssS'1209019666'
p1709
(dp1710
g7
S'2008-11-07 12:01:16'
p1711
sg9
S'DEVO CANE'
p1712
sg11
I99
sg12
S'Floyd'
p1713
sg14
S'Nykki Heartsdale'
p1714
ssS'1253019190'
p1715
(dp1716
S'date'
p1717
S'2008-11-30 18:44:52'
p1718
sS'item'
p1719
S'DEVO ACCORDIAN'
p1720
sS'amount'
p1721
I299
sS'location'
p1722
S'Mostly Harmless'
p1723
sS'name'
p1724
S'Moopy Mubble'
p1725
ssS'1131800508'
p1726
(dp1727
g69
S'2008-09-26 15:09:16'
p1728
sg71
S'DEVO SLINGSHOT'
p1729
sg73
I99
sg74
S'ministry of media'
p1730
sg76
S'JimRockfords Smalls'
p1731
ssS'1281921772'
p1732
(dp1733
g47
S'2008-12-15 08:58:56'
p1734
sg49
S'DEVO SEX BOMB'
p1735
sg51
I1
sg52
S'Aura'
p1736
sg54
S'JoeWhisky Diavolo'
p1737
ssS'1283907720'
p1738
(dp1739
g188
S'2008-12-16 07:05:18'
p1740
sg190
S'DEVO SEX BOMB'
p1741
sg192
I1
sg193
S'Aura'
p1742
sg195
S'Natashaa Ireton'
p1743
ssS'1277009671'
p1744
(dp1745
g47
S'2008-12-12 20:43:24'
p1746
sg49
S'DEVO SEX BOMB'
p1747
sg51
I1
sg52
S'Aura'
p1748
sg54
S'Bellaniin Blaisdale'
p1749
ssS'1114490348'
p1750
(dp1751
g333
S'2008-09-16 16:53:42'
p1752
sg335
S'DEVO HAMMER'
p1753
sg337
I299
sg338
S'ministry of media'
p1754
sg340
S'Vasean Talamasca'
p1755
ssS'1111039604'
p1756
(dp1757
g1343
S'2008-09-14 18:42:37'
p1758
sg1345
S'DEVO SLINGSHOT'
p1759
sg1347
I99
sg1348
S'ministry of media'
p1760
sg1350
S'Bah Cortes'
p1761
ssS'1114490619'
p1762
(dp1763
g333
S'2008-09-16 16:53:54'
p1764
sg335
S'DEVO MIXER'
p1765
sg337
I499
sg338
S'ministry of media'
p1766
sg340
S'Vasean Talamasca'
p1767
ssS'1270139581'
p1768
(dp1769
S'date'
p1770
S'2008-12-09 07:34:40'
p1771
sS'item'
p1772
S'DEVO SEX BOMB'
p1773
sS'amount'
p1774
I1
sS'location'
p1775
S'Aura'
p1776
sS'name'
p1777
S'Hiro Geesink'
p1778
ssS'1106290779'
p1779
(dp1780
g228
S'2008-09-12 06:33:43'
p1781
sg230
S'DEVO LEGLESS'
p1782
sg232
I299
sg233
S'ministry of media'
p1783
sg235
S'Kenry Klaar'
p1784
ssS'1177490088'
p1785
(dp1786
g7
S'2008-10-21 13:34:43'
p1787
sg9
S'DEVO WAND'
p1788
sg11
I299
sg12
S'Floyd'
p1789
sg14
S'Stein Shilova'
p1790
ssS'1219662478'
p1791
(dp1792
g526
S'2008-11-13 02:38:47'
p1793
sg528
S'DEVO SLINGSHOT'
p1794
sg530
I99
sg531
S'Floyd'
p1795
sg533
S'Messamo House'
p1796
ssS'1127395854'
p1797
(dp1798
S'date'
p1799
S'2008-09-24 00:13:51'
p1800
sS'item'
p1801
S'DEVO WAND'
p1802
sS'amount'
p1803
I299
sS'location'
p1804
S'ministry of media'
p1805
sS'name'
p1806
S'okrebecca Dastardly'
p1807
ssS'1260275404'
p1808
(dp1809
g572
S'2008-12-04 10:50:18'
p1810
sg574
S'DEVO WAND'
p1811
sg576
I299
sg577
S'Aura'
p1812
sg579
S'Roxanne Dubienski'
p1813
ssS'1200543455'
p1814
(dp1815
g7
S'2008-11-02 17:52:21'
p1816
sg9
S'DEVO LEGLESS'
p1817
sg11
I299
sg12
S'Aura'
p1818
sg14
S'Hugo Plessis'
p1819
ssS'1206368205'
p1820
(dp1821
g7
S'2008-11-05 22:17:21'
p1822
sg9
S'DEVO BEEHIVE'
p1823
sg11
I99
sg12
S'Floyd'
p1824
sg14
S'Minerva Minton'
p1825
ssS'1148819099'
p1826
(dp1827
g1515
S'2008-10-05 23:52:40'
p1828
sg1517
S'DEVO WAND'
p1829
sg1519
I299
sg1520
S'ministry of media'
p1830
sg1522
S'Miabella Foxley'
p1831
ssS'1114489741'
p1832
(dp1833
g333
S'2008-09-16 16:53:15'
p1834
sg335
S'DEVO APERTURE GATE'
p1835
sg337
I299
sg338
S'ministry of media'
p1836
sg340
S'Vasean Talamasca'
p1837
ssS'1122443816'
p1838
(dp1839
S'date'
p1840
S'2008-09-21 08:08:49'
p1841
sS'item'
p1842
S'DEVO TOASTER'
p1843
sS'amount'
p1844
I299
sS'location'
p1845
S'ministry of media'
p1846
sS'name'
p1847
S'Dimento Oh'
p1848
ssS'1216313726'
p1849
(dp1850
g857
S'2008-11-11 06:28:22'
p1851
sg859
S'DEVO SLINGSHOT'
p1852
sg861
I99
sg862
S'Mostly Harmless'
p1853
sg864
S'Sarahlin Constantine'
p1854
ssS'1241033923'
p1855
(dp1856
g154
S'2008-11-24 13:23:34'
p1857
sg156
S'DEVO BEEHIVE'
p1858
sg158
I99
sg159
S'Floyd'
p1859
sg161
S'Kisa Naumova'
p1860
ssS'1221602950'
p1861
(dp1862
g120
S'2008-11-14 06:17:35'
p1863
sg122
S'DEVO ORANGE TREE'
p1864
sg124
I299
sg125
S'Floyd'
p1865
sg127
S'Bethany Heart'
p1866
ssS'1200535909'
p1867
(dp1868
g7
S'2008-11-02 17:47:23'
p1869
sg9
S'DEVO WAND'
p1870
sg11
I299
sg12
S'Aura'
p1871
sg14
S'Hugo Plessis'
p1872
ssS'1254985683'
p1873
(dp1874
S'date'
p1875
S'2008-12-01 19:42:30'
p1876
sS'item'
p1877
S'DEVO SEX BOMB'
p1878
sS'amount'
p1879
I1
sS'location'
p1880
S'Aura'
p1881
sS'name'
p1882
S'Catwoman78 Cortes'
p1883
ssS'1173404637'
p1884
(dp1885
g7
S'2008-10-19 11:06:43'
p1886
sg9
S'DEVO CANE'
p1887
sg11
I99
sg12
S'Aura'
p1888
sg14
S'minna Beaumont'
p1889
ssS'1147376699'
p1890
(dp1891
g1515
S'2008-10-05 07:02:50'
p1892
sg1517
S'DEVO WAND'
p1893
sg1519
I299
sg1520
S'Mostly Harmless'
p1894
sg1522
S'Mur Attenborough'
p1895
sstRp1896
(dp1897
S'_path'
p1898
S'C:\\Documents and Settings\\smcdonald\\Desktop\\dev\\slbuddy\\sales'
p1899
sb.